target datalayout = "e-m:e-p270:32:32-p271:32:32-p272:64:64-i64:64-i128:128-f80:128-n8:16:32:64-S128"
target triple = "x86_64-pc-linux-gnu"

; Function Attrs: nounwind sspstrong uwtable
define internal i64 @fun_so_to_utf_16(ptr noundef %0, ptr noundef %1, i64 noundef %2, ptr noundef %3, i64 noundef %4) #0 {
  %6 = alloca i64, align 8
  %7 = alloca ptr, align 8
  %8 = alloca ptr, align 8
  %9 = alloca i64, align 8
  %10 = alloca ptr, align 8
  %11 = alloca i64, align 8
  %12 = alloca ptr, align 8
  %13 = alloca i32, align 4
  store ptr %0, ptr %7, align 8, !tbaa !6
  store ptr %1, ptr %8, align 8, !tbaa !10
  store i64 %2, ptr %9, align 8, !tbaa !12
  store ptr %3, ptr %10, align 8, !tbaa !10
  store i64 %4, ptr %11, align 8, !tbaa !12
  call void @llvm.lifetime.start.p0(i64 8, ptr %12) #3
  %14 = load ptr, ptr %7, align 8, !tbaa !6
  store ptr %14, ptr %12, align 8, !tbaa !10
  %15 = load ptr, ptr %12, align 8, !tbaa !10
  %16 = load i8, ptr %15, align 1, !tbaa !14
  %17 = zext i8 %16 to i32
  %18 = icmp eq i32 %17, 0
  br i1 %18, label %19, label %32

19:                                               ; preds = %5
  %20 = load ptr, ptr %10, align 8, !tbaa !10
  %21 = getelementptr inbounds nuw i8, ptr %20, i32 1
  store ptr %21, ptr %10, align 8, !tbaa !10
  store i8 -2, ptr %20, align 1, !tbaa !14
  %22 = load ptr, ptr %10, align 8, !tbaa !10
  %23 = getelementptr inbounds nuw i8, ptr %22, i32 1
  store ptr %23, ptr %10, align 8, !tbaa !10
  store i8 -1, ptr %22, align 1, !tbaa !14
  %24 = load ptr, ptr %12, align 8, !tbaa !10
  store i8 1, ptr %24, align 1, !tbaa !14
  %25 = load ptr, ptr %7, align 8, !tbaa !6
  %26 = load ptr, ptr %8, align 8, !tbaa !10
  %27 = load i64, ptr %9, align 8, !tbaa !12
  %28 = load ptr, ptr %10, align 8, !tbaa !10
  %29 = load i64, ptr %11, align 8, !tbaa !12
  %30 = call i64 @fun_so_to_utf_16be(ptr noundef %25, ptr noundef %26, i64 noundef %27, ptr noundef %28, i64 noundef %29)
  %31 = add nsw i64 2, %30
  store i64 %31, ptr %6, align 8
  store i32 1, ptr %13, align 4
  br label %39

32:                                               ; preds = %5
  %33 = load ptr, ptr %7, align 8, !tbaa !6
  %34 = load ptr, ptr %8, align 8, !tbaa !10
  %35 = load i64, ptr %9, align 8, !tbaa !12
  %36 = load ptr, ptr %10, align 8, !tbaa !10
  %37 = load i64, ptr %11, align 8, !tbaa !12
  %38 = call i64 @fun_so_to_utf_16be(ptr noundef %33, ptr noundef %34, i64 noundef %35, ptr noundef %36, i64 noundef %37)
  store i64 %38, ptr %6, align 8
  store i32 1, ptr %13, align 4
  br label %39

39:                                               ; preds = %32, %19
  call void @llvm.lifetime.end.p0(i64 8, ptr %12) #3
  %40 = load i64, ptr %6, align 8
  ret i64 %40
}