; Function Attrs: mustprogress nofree norecurse nosync nounwind sspstrong willreturn memory(argmem: readwrite) uwtable
define internal range(i64 2, 7) i64 @fun_so_to_utf_16(ptr noundef captures(none) %0, ptr noundef readonly captures(none) %1, i64 %2, ptr noundef writeonly captures(none) initializes((0, 1)) %3, i64 %4) #2 {
  %6 = load i8, ptr %0, align 1, !tbaa !6
  %7 = icmp eq i8 %6, 0
  br i1 %7, label %8, label %13

8:                                                ; preds = %5
  %9 = getelementptr inbounds nuw i8, ptr %3, i64 1
  store i8 -2, ptr %3, align 1, !tbaa !6
  %10 = getelementptr inbounds nuw i8, ptr %3, i64 2
  store i8 -1, ptr %9, align 1, !tbaa !6
  store i8 1, ptr %0, align 1, !tbaa !6
  %11 = tail call i64 @fun_so_to_utf_16be(ptr nonnull poison, ptr noundef %1, i64 poison, ptr noundef nonnull %10, i64 poison)
  %12 = add nuw nsw i64 %11, 2
  br label %15

13:                                               ; preds = %5
  %14 = tail call i64 @fun_so_to_utf_16be(ptr nonnull poison, ptr noundef %1, i64 poison, ptr noundef %3, i64 poison)
  br label %15

15:                                               ; preds = %13, %8
  %.0 = phi i64 [ %12, %8 ], [ %14, %13 ]
  ret i64 %.0
}